; Function Attrs: mustprogress uwtable
define noundef double @_ZNK8QuantLib38AnalyticPartialTimeBarrierOptionEngine2e3Ev(ptr noundef nonnull align 8 dereferenceable(384) %this) local_unnamed_addr #9 align 2 {
entry:
  %process_.i = getelementptr inbounds nuw i8, ptr %this, i64 368
  %0 = load ptr, ptr %process_.i, align 8, !tbaa !48
  %cmp.not.i.i = icmp eq ptr %0, null
  br i1 %cmp.not.i.i, label %cond.false.i.i, label %_ZNK8QuantLib38AnalyticPartialTimeBarrierOptionEngine14coverEventTimeEv.exit, !prof !66

cond.false.i.i:                                   ; preds = %entry
  tail call void @_ZN5boost16assertion_failedEPKcS1_S1_l(ptr noundef nonnull @.str.22, ptr noundef nonnull @__PRETTY_FUNCTION__._ZNK5boost10shared_ptrIN8QuantLib30GeneralizedBlackScholesProcessEEptEv, ptr noundef nonnull @.str.23, i64 noundef 784)
  %.pre.i.i = load ptr, ptr %process_.i, align 8, !tbaa !48
  br label %_ZNK8QuantLib38AnalyticPartialTimeBarrierOptionEngine14coverEventTimeEv.exit

_ZNK8QuantLib38AnalyticPartialTimeBarrierOptionEngine14coverEventTimeEv.exit: ; preds = %entry, %cond.false.i.i
  %1 = phi ptr [ %0, %entry ], [ %.pre.i.i, %cond.false.i.i ]
  %coverEventDate.i = getelementptr inbounds nuw i8, ptr %this, i64 176
  %vtable.i = load ptr, ptr %1, align 8, !tbaa !33
  %vfn.i = getelementptr inbounds i8, ptr %vtable.i, i64 112
  %2 = load ptr, ptr %vfn.i, align 8
  %call2.i = tail call noundef double %2(ptr noundef nonnull align 8 dereferenceable(250) %1, ptr noundef nonnull align 8 dereferenceable(8) %coverEventDate.i)
  %call2 = tail call noundef double @_ZNK8QuantLib38AnalyticPartialTimeBarrierOptionEngine10volatilityEd(ptr noundef nonnull align 8 dereferenceable(384) %this, double noundef %call2.i)
  %call3 = tail call noundef double @_ZNK8QuantLib38AnalyticPartialTimeBarrierOptionEngine2e1Ev(ptr noundef nonnull align 8 dereferenceable(384) %this)
  %barrier.i = getelementptr inbounds nuw i8, ptr %this, i64 160
  %3 = load double, ptr %barrier.i, align 8, !tbaa !96
  %4 = load ptr, ptr %process_.i, align 8, !tbaa !48
  %cmp.not.i.i3 = icmp eq ptr %4, null
  br i1 %cmp.not.i.i3, label %cond.false.i.i7, label %_ZNK8QuantLib38AnalyticPartialTimeBarrierOptionEngine10underlyingEv.exit, !prof !66

cond.false.i.i7:                                  ; preds = %_ZNK8QuantLib38AnalyticPartialTimeBarrierOptionEngine14coverEventTimeEv.exit
  tail call void @_ZN5boost16assertion_failedEPKcS1_S1_l(ptr noundef nonnull @.str.22, ptr noundef nonnull @__PRETTY_FUNCTION__._ZNK5boost10shared_ptrIN8QuantLib30GeneralizedBlackScholesProcessEEptEv, ptr noundef nonnull @.str.23, i64 noundef 784)
  %.pre.i.i8 = load ptr, ptr %process_.i, align 8, !tbaa !48
  br label %_ZNK8QuantLib38AnalyticPartialTimeBarrierOptionEngine10underlyingEv.exit

_ZNK8QuantLib38AnalyticPartialTimeBarrierOptionEngine10underlyingEv.exit: ; preds = %_ZNK8QuantLib38AnalyticPartialTimeBarrierOptionEngine14coverEventTimeEv.exit, %cond.false.i.i7
  %5 = phi ptr [ %4, %_ZNK8QuantLib38AnalyticPartialTimeBarrierOptionEngine14coverEventTimeEv.exit ], [ %.pre.i.i8, %cond.false.i.i7 ]
  %vtable.i4 = load ptr, ptr %5, align 8, !tbaa !33
  %vfn.i5 = getelementptr inbounds i8, ptr %vtable.i4, i64 120
  %6 = load ptr, ptr %vfn.i5, align 8
  %call2.i6 = tail call noundef double %6(ptr noundef nonnull align 8 dereferenceable(250) %5)
  %div = fdiv double %3, %call2.i6
  %call6 = tail call double @log(double noundef %div) #30, !tbaa !94
  %mul = fmul double %call6, 2.000000e+00
  %call7 = tail call double @sqrt(double noundef %call2.i) #30, !tbaa !94
  %mul8 = fmul double %call2, %call7
  %div9 = fdiv double %mul, %mul8
  %add = fadd double %call3, %div9
  ret double %add
}